target datalayout = "e-m:e-p270:32:32-p271:32:32-p272:64:64-i64:64-i128:128-f80:128-n8:16:32:64-S128"
target triple = "x86_64-pc-linux-gnu"

%struct.ParseCallbackState = type { ptr, i32, %struct.ErrorContextCallback }
%struct.ErrorContextCallback = type { ptr, ptr, ptr }

; Function Attrs: nounwind uwtable
define dso_local i32 @LookupCollation(ptr noundef %0, ptr noundef %1, i32 noundef %2) #0 {
  %4 = alloca ptr, align 8
  %5 = alloca ptr, align 8
  %6 = alloca i32, align 4
  %7 = alloca i32, align 4
  %8 = alloca %struct.ParseCallbackState, align 8
  store ptr %0, ptr %4, align 8
  store ptr %1, ptr %5, align 8
  store i32 %2, ptr %6, align 4
  call void @llvm.lifetime.start.p0(i64 4, ptr %7) #7
  call void @llvm.lifetime.start.p0(i64 40, ptr %8) #7
  %9 = load ptr, ptr %4, align 8
  %10 = icmp ne ptr %9, null
  br i1 %10, label %11, label %14

11:                                               ; preds = %3
  %12 = load ptr, ptr %4, align 8
  %13 = load i32, ptr %6, align 4
  call void @setup_parser_errposition_callback(ptr noundef %8, ptr noundef %12, i32 noundef %13)
  br label %14

14:                                               ; preds = %11, %3
  %15 = load ptr, ptr %5, align 8
  %16 = call i32 @get_collation_oid(ptr noundef %15, i1 noundef zeroext false)
  store i32 %16, ptr %7, align 4
  %17 = load ptr, ptr %4, align 8
  %18 = icmp ne ptr %17, null
  br i1 %18, label %19, label %20

19:                                               ; preds = %14
  call void @cancel_parser_errposition_callback(ptr noundef %8)
  br label %20

20:                                               ; preds = %19, %14
  %21 = load i32, ptr %7, align 4
  call void @llvm.lifetime.end.p0(i64 40, ptr %8) #7
  call void @llvm.lifetime.end.p0(i64 4, ptr %7) #7
  ret i32 %21
}