; Function Attrs: nounwind uwtable
define dso_local i32 @LookupCollation(ptr noundef %0, ptr noundef %1, i32 noundef %2) local_unnamed_addr #0 {
  %4 = alloca %struct.ParseCallbackState, align 8
  call void @llvm.lifetime.start.p0(i64 40, ptr nonnull %4) #7
  %.not = icmp eq ptr %0, null
  br i1 %.not, label %.thread, label %6

.thread:                                          ; preds = %3
  %5 = tail call i32 @get_collation_oid(ptr noundef %1, i1 noundef zeroext false) #7
  br label %8

6:                                                ; preds = %3
  call void @setup_parser_errposition_callback(ptr noundef nonnull %4, ptr noundef nonnull %0, i32 noundef %2) #7
  %7 = call i32 @get_collation_oid(ptr noundef %1, i1 noundef zeroext false) #7
  call void @cancel_parser_errposition_callback(ptr noundef nonnull %4) #7
  br label %8

8:                                                ; preds = %.thread, %6
  %9 = phi i32 [ %5, %.thread ], [ %7, %6 ]
  call void @llvm.lifetime.end.p0(i64 40, ptr nonnull %4) #7
  ret i32 %9
}